target datalayout = "e-m:e-p270:32:32-p271:32:32-p272:64:64-i64:64-i128:128-f80:128-n8:16:32:64-S128"
target triple = "x86_64-pc-linux-gnu"

%class.PreferenceEditorFrame = type { %class.AccordionFrame, ptr, ptr, ptr, i32, %class.QString, ptr }
%class.AccordionFrame = type { %class.QFrame, i32, ptr }
%class.QFrame = type { %class.QWidget }
%class.QWidget = type { %class.QObject, %class.QPaintDevice.base, ptr }
%class.QObject = type { ptr, %class.QScopedPointer }
%class.QScopedPointer = type { ptr }
%class.QPaintDevice.base = type <{ ptr, i16 }>
%class.QString = type { %struct.QArrayDataPointer }
%struct.QArrayDataPointer = type { ptr, ptr, i64 }
%class.Ui_PreferenceEditorFrame = type { ptr, ptr, ptr, ptr, ptr, ptr, ptr, ptr }

; Function Attrs: mustprogress uwtable
define linkonce_odr void @_ZN14AccordionFrame9showEventEP10QShowEvent(ptr noundef nonnull align 8 dereferenceable(56) %0, ptr noundef %1) unnamed_addr #0 comdat align 2 {
  %3 = alloca ptr, align 8
  %4 = alloca ptr, align 8
  store ptr %0, ptr %3, align 8
  store ptr %1, ptr %4, align 8
  %5 = load ptr, ptr %3, align 8
  call void @_ZN14AccordionFrame17visibilityChangedEb(ptr noundef nonnull align 8 dereferenceable(56) %5, i1 noundef zeroext true)
  ret void
}

; Function Attrs: mustprogress uwtable
define linkonce_odr void @_ZN7QWidget8setFocusEv(ptr noundef nonnull align 8 dereferenceable(40) %0) #0 comdat align 2 {
  %2 = alloca ptr, align 8
  store ptr %0, ptr %2, align 8
  %3 = load ptr, ptr %2, align 8
  call void @_ZN7QWidget8setFocusEN2Qt11FocusReasonE(ptr noundef nonnull align 8 dereferenceable(40) %3, i32 noundef 7)
  ret void
}

; Function Attrs: mustprogress uwtable
define void @_ZN21PreferenceEditorFrame9showEventEP10QShowEvent(ptr noundef nonnull align 8 dereferenceable(120) %0, ptr noundef %1) unnamed_addr #0 align 2 {
  %3 = alloca ptr, align 8
  %4 = alloca ptr, align 8
  store ptr %0, ptr %3, align 8
  store ptr %1, ptr %4, align 8
  %5 = load ptr, ptr %3, align 8
  %6 = getelementptr inbounds %class.PreferenceEditorFrame, ptr %5, i32 0, i32 1
  %7 = load ptr, ptr %6, align 8
  %8 = getelementptr inbounds %class.Ui_PreferenceEditorFrame, ptr %7, i32 0, i32 4
  %9 = load ptr, ptr %8, align 8
  call void @_ZN7QWidget8setFocusEv(ptr noundef nonnull align 8 dereferenceable(40) %9)
  %10 = getelementptr inbounds %class.PreferenceEditorFrame, ptr %5, i32 0, i32 1
  %11 = load ptr, ptr %10, align 8
  %12 = getelementptr inbounds %class.Ui_PreferenceEditorFrame, ptr %11, i32 0, i32 4
  %13 = load ptr, ptr %12, align 8
  call void @_ZN9QLineEdit9selectAllEv(ptr noundef nonnull align 8 dereferenceable(40) %13)
  %14 = load ptr, ptr %4, align 8
  call void @_ZN14AccordionFrame9showEventEP10QShowEvent(ptr noundef nonnull align 8 dereferenceable(56) %5, ptr noundef %14)
  ret void
}